target datalayout = "e-m:e-p270:32:32-p271:32:32-p272:64:64-i64:64-i128:128-f80:128-n8:16:32:64-S128"
target triple = "x86_64-pc-linux-gnu"

%struct.job_feature_t = type { ptr, i16, i8, i16, i8, ptr, ptr, i16 }

; Function Attrs: nounwind uwtable
define internal i32 @_match_feature(ptr noundef %0, ptr noundef %1) #0 {
  %3 = alloca i32, align 4
  %4 = alloca ptr, align 8
  %5 = alloca ptr, align 8
  %6 = alloca ptr, align 8
  %7 = alloca ptr, align 8
  %8 = alloca i32, align 4
  %9 = alloca i32, align 4
  %10 = alloca i32, align 4
  %11 = alloca i32, align 4
  %12 = alloca ptr, align 8
  %13 = alloca ptr, align 8
  %14 = alloca ptr, align 8
  %15 = alloca i32, align 4
  store ptr %0, ptr %4, align 8
  store ptr %1, ptr %5, align 8
  call void @llvm.lifetime.start.p0(i64 8, ptr %6) #8
  call void @llvm.lifetime.start.p0(i64 8, ptr %7) #8
  call void @llvm.lifetime.start.p0(i64 4, ptr %8) #8
  store i32 1, ptr %8, align 4
  call void @llvm.lifetime.start.p0(i64 4, ptr %9) #8
  store i32 1, ptr %9, align 4
  call void @llvm.lifetime.start.p0(i64 4, ptr %10) #8
  call void @llvm.lifetime.start.p0(i64 4, ptr %11) #8
  store i32 0, ptr %11, align 4
  call void @llvm.lifetime.start.p0(i64 8, ptr %12) #8
  call void @llvm.lifetime.start.p0(i64 8, ptr %13) #8
  store ptr null, ptr %13, align 8
  call void @llvm.lifetime.start.p0(i64 8, ptr %14) #8
  %16 = load ptr, ptr %4, align 8
  %17 = icmp ne ptr %16, null
  br i1 %17, label %18, label %21

18:                                               ; preds = %2
  %19 = call i32 @node_features_g_count()
  %20 = icmp eq i32 %19, 0
  br i1 %20, label %21, label %22

21:                                               ; preds = %18, %2
  store i32 0, ptr %3, align 4
  store i32 1, ptr %15, align 4
  br label %143

22:                                               ; preds = %18
  %23 = call ptr @node_conf_get_active_bitmap()
  store ptr %23, ptr %12, align 8
  %24 = load ptr, ptr %12, align 8
  store ptr %24, ptr %14, align 8
  %25 = load ptr, ptr %4, align 8
  %26 = call ptr @list_iterator_create(ptr noundef %25)
  store ptr %26, ptr %6, align 8
  br label %27

27:                                               ; preds = %108, %22
  %28 = load ptr, ptr %6, align 8
  %29 = call ptr @list_next(ptr noundef %28)
  store ptr %29, ptr %7, align 8
  %30 = icmp ne ptr %29, null
  br i1 %30, label %31, label %117

31:                                               ; preds = %27
  %32 = load i32, ptr %11, align 4
  %33 = load ptr, ptr %7, align 8
  %34 = getelementptr inbounds nuw %struct.job_feature_t, ptr %33, i32 0, i32 7
  %35 = load i16, ptr %34, align 8
  %36 = zext i16 %35 to i32
  %37 = icmp slt i32 %32, %36
  br i1 %37, label %38, label %49

38:                                               ; preds = %31
  %39 = load i32, ptr %8, align 4
  store i32 %39, ptr %9, align 4
  store i32 1, ptr %8, align 4
  br label %40

40:                                               ; preds = %38
  %41 = load ptr, ptr %13, align 8
  %42 = icmp ne ptr %41, null
  br i1 %42, label %43, label %44

43:                                               ; preds = %40
  call void @slurm_bit_free(ptr noundef %13)
  br label %44

44:                                               ; preds = %43, %40
  store ptr null, ptr %13, align 8
  br label %45

45:                                               ; preds = %44
  br label %46

46:                                               ; preds = %45
  %47 = call ptr @node_conf_get_active_bitmap()
  store ptr %47, ptr %13, align 8
  %48 = load ptr, ptr %13, align 8
  store ptr %48, ptr %14, align 8
  br label %49

49:                                               ; preds = %46, %31
  %50 = load ptr, ptr %7, align 8
  %51 = getelementptr inbounds nuw %struct.job_feature_t, ptr %50, i32 0, i32 6
  %52 = load ptr, ptr %51, align 8
  %53 = icmp ne ptr %52, null
  br i1 %53, label %54, label %77

54:                                               ; preds = %49
  %55 = load i32, ptr %8, align 4
  %56 = icmp eq i32 %55, 1
  br i1 %56, label %57, label %62

57:                                               ; preds = %54
  %58 = load ptr, ptr %14, align 8
  %59 = load ptr, ptr %7, align 8
  %60 = getelementptr inbounds nuw %struct.job_feature_t, ptr %59, i32 0, i32 5
  %61 = load ptr, ptr %60, align 8
  call void @bit_and(ptr noundef %58, ptr noundef %61)
  br label %76

62:                                               ; preds = %54
  %63 = load i32, ptr %8, align 4
  %64 = icmp eq i32 %63, 0
  br i1 %64, label %65, label %70

65:                                               ; preds = %62
  %66 = load ptr, ptr %14, align 8
  %67 = load ptr, ptr %7, align 8
  %68 = getelementptr inbounds nuw %struct.job_feature_t, ptr %67, i32 0, i32 5
  %69 = load ptr, ptr %68, align 8
  call void @bit_or(ptr noundef %66, ptr noundef %69)
  br label %75

70:                                               ; preds = %62
  %71 = load ptr, ptr %14, align 8
  %72 = load ptr, ptr %7, align 8
  %73 = getelementptr inbounds nuw %struct.job_feature_t, ptr %72, i32 0, i32 5
  %74 = load ptr, ptr %73, align 8
  call void @bit_and(ptr noundef %71, ptr noundef %74)
  br label %75

75:                                               ; preds = %70, %65
  br label %76

76:                                               ; preds = %75, %57
  br label %83

77:                                               ; preds = %49
  %78 = load i32, ptr %8, align 4
  %79 = icmp eq i32 %78, 1
  br i1 %79, label %80, label %82

80:                                               ; preds = %77
  %81 = load ptr, ptr %14, align 8
  call void @bit_clear_all(ptr noundef %81)
  br label %82

82:                                               ; preds = %80, %77
  br label %83

83:                                               ; preds = %82, %76
  %84 = load i32, ptr %11, align 4
  %85 = load ptr, ptr %7, align 8
  %86 = getelementptr inbounds nuw %struct.job_feature_t, ptr %85, i32 0, i32 7
  %87 = load i16, ptr %86, align 8
  %88 = zext i16 %87 to i32
  %89 = icmp sgt i32 %84, %88
  br i1 %89, label %90, label %108

90:                                               ; preds = %83
  %91 = load i32, ptr %9, align 4
  %92 = icmp eq i32 %91, 1
  br i1 %92, label %93, label %96

93:                                               ; preds = %90
  %94 = load ptr, ptr %12, align 8
  %95 = load ptr, ptr %14, align 8
  call void @bit_and(ptr noundef %94, ptr noundef %95)
  br label %106

96:                                               ; preds = %90
  %97 = load i32, ptr %9, align 4
  %98 = icmp eq i32 %97, 0
  br i1 %98, label %99, label %102

99:                                               ; preds = %96
  %100 = load ptr, ptr %12, align 8
  %101 = load ptr, ptr %14, align 8
  call void @bit_or(ptr noundef %100, ptr noundef %101)
  br label %105

102:                                              ; preds = %96
  %103 = load ptr, ptr %12, align 8
  %104 = load ptr, ptr %14, align 8
  call void @bit_and(ptr noundef %103, ptr noundef %104)
  br label %105

105:                                              ; preds = %102, %99
  br label %106

106:                                              ; preds = %105, %93
  %107 = load ptr, ptr %12, align 8
  store ptr %107, ptr %14, align 8
  br label %108

108:                                              ; preds = %106, %83
  %109 = load ptr, ptr %7, align 8
  %110 = getelementptr inbounds nuw %struct.job_feature_t, ptr %109, i32 0, i32 4
  %111 = load i8, ptr %110, align 2
  %112 = zext i8 %111 to i32
  store i32 %112, ptr %8, align 4
  %113 = load ptr, ptr %7, align 8
  %114 = getelementptr inbounds nuw %struct.job_feature_t, ptr %113, i32 0, i32 7
  %115 = load i16, ptr %114, align 8
  %116 = zext i16 %115 to i32
  store i32 %116, ptr %11, align 4
  br label %27, !llvm.loop !19

117:                                              ; preds = %27
  %118 = load ptr, ptr %6, align 8
  call void @list_iterator_destroy(ptr noundef %118)
  br label %119

119:                                              ; preds = %117
  %120 = load ptr, ptr %13, align 8
  %121 = icmp ne ptr %120, null
  br i1 %121, label %122, label %123

122:                                              ; preds = %119
  call void @slurm_bit_free(ptr noundef %13)
  br label %123

123:                                              ; preds = %122, %119
  store ptr null, ptr %13, align 8
  br label %124

124:                                              ; preds = %123
  br label %125

125:                                              ; preds = %124
  %126 = load ptr, ptr %12, align 8
  %127 = call i64 @bit_ffc(ptr noundef %126)
  %128 = trunc i64 %127 to i32
  store i32 %128, ptr %10, align 4
  %129 = load i32, ptr %10, align 4
  %130 = icmp eq i32 %129, -1
  br i1 %130, label %131, label %139

131:                                              ; preds = %125
  br label %132

132:                                              ; preds = %131
  %133 = load ptr, ptr %12, align 8
  %134 = icmp ne ptr %133, null
  br i1 %134, label %135, label %136

135:                                              ; preds = %132
  call void @slurm_bit_free(ptr noundef %12)
  br label %136

136:                                              ; preds = %135, %132
  store ptr null, ptr %12, align 8
  br label %137

137:                                              ; preds = %136
  br label %138

138:                                              ; preds = %137
  store i32 0, ptr %3, align 4
  store i32 1, ptr %15, align 4
  br label %143

139:                                              ; preds = %125
  %140 = load ptr, ptr %12, align 8
  call void @bit_not(ptr noundef %140)
  %141 = load ptr, ptr %12, align 8
  %142 = load ptr, ptr %5, align 8
  store ptr %141, ptr %142, align 8
  store i32 1, ptr %3, align 4
  store i32 1, ptr %15, align 4
  br label %143

143:                                              ; preds = %139, %138, %21
  call void @llvm.lifetime.end.p0(i64 8, ptr %14) #8
  call void @llvm.lifetime.end.p0(i64 8, ptr %13) #8
  call void @llvm.lifetime.end.p0(i64 8, ptr %12) #8
  call void @llvm.lifetime.end.p0(i64 4, ptr %11) #8
  call void @llvm.lifetime.end.p0(i64 4, ptr %10) #8
  call void @llvm.lifetime.end.p0(i64 4, ptr %9) #8
  call void @llvm.lifetime.end.p0(i64 4, ptr %8) #8
  call void @llvm.lifetime.end.p0(i64 8, ptr %7) #8
  call void @llvm.lifetime.end.p0(i64 8, ptr %6) #8
  %144 = load i32, ptr %3, align 4
  ret i32 %144
}