; Function Attrs: nounwind uwtable
define internal fastcc range(i32 0, 2) i32 @_match_feature(ptr noundef %0, ptr noundef nonnull writeonly captures(none) %1) unnamed_addr #0 {
  %3 = alloca ptr, align 8
  %4 = alloca ptr, align 8
  call void @llvm.lifetime.start.p0(i64 8, ptr nonnull %3) #14
  call void @llvm.lifetime.start.p0(i64 8, ptr nonnull %4) #14
  store ptr null, ptr %4, align 8
  %.not = icmp eq ptr %0, null
  br i1 %.not, label %63, label %5

5:                                                ; preds = %2
  %6 = tail call i32 @node_features_g_count() #14
  %7 = icmp eq i32 %6, 0
  br i1 %7, label %63, label %8

8:                                                ; preds = %5
  %9 = tail call ptr @node_conf_get_active_bitmap() #14
  store ptr %9, ptr %3, align 8
  %10 = tail call ptr @list_iterator_create(ptr noundef nonnull %0) #14
  %11 = tail call ptr @list_next(ptr noundef %10) #14
  %.not3766 = icmp eq ptr %11, null
  br i1 %.not3766, label %._crit_edge, label %.lr.ph

.lr.ph:                                           ; preds = %8, %48
  %12 = phi ptr [ %52, %48 ], [ %11, %8 ]
  %.070 = phi ptr [ %.2, %48 ], [ %9, %8 ]
  %.02969 = phi i32 [ %.pre-phi, %48 ], [ 0, %8 ]
  %.03168 = phi i32 [ %.13248, %48 ], [ 1, %8 ]
  %.03367 = phi i32 [ %51, %48 ], [ 1, %8 ]
  %13 = getelementptr inbounds nuw i8, ptr %12, i64 32
  %14 = load i16, ptr %13, align 8
  %15 = zext i16 %14 to i32
  %16 = icmp samesign ult i32 %.02969, %15
  br i1 %16, label %17, label %20

17:                                               ; preds = %.lr.ph
  %18 = load ptr, ptr %4, align 8
  %.not40 = icmp eq ptr %18, null
  br i1 %.not40, label %.thread, label %19

19:                                               ; preds = %17
  call void @slurm_bit_free(ptr noundef nonnull %4) #14
  br label %.thread

20:                                               ; preds = %.lr.ph
  %21 = getelementptr inbounds nuw i8, ptr %12, i64 24
  %22 = load ptr, ptr %21, align 8
  %.not41 = icmp eq ptr %22, null
  br i1 %.not41, label %35, label %26

.thread:                                          ; preds = %17, %19
  store ptr null, ptr %4, align 8
  %23 = call ptr @node_conf_get_active_bitmap() #14
  store ptr %23, ptr %4, align 8
  %24 = getelementptr inbounds nuw i8, ptr %12, i64 24
  %25 = load ptr, ptr %24, align 8
  %.not4145 = icmp eq ptr %25, null
  br i1 %.not4145, label %.thread54, label %.thread60

26:                                               ; preds = %20
  %trunc = trunc nuw i32 %.03367 to i8
  switch i8 %trunc, label %32 [
    i8 1, label %.thread60
    i8 0, label %29
  ]

.thread60:                                        ; preds = %.thread, %26
  %.1324965 = phi i32 [ %.03168, %26 ], [ %.03367, %.thread ]
  %.15164 = phi ptr [ %.070, %26 ], [ %23, %.thread ]
  %27 = getelementptr inbounds nuw i8, ptr %12, i64 16
  %28 = load ptr, ptr %27, align 8
  call void @bit_and(ptr noundef %.15164, ptr noundef %28) #14
  br label %37

29:                                               ; preds = %26
  %30 = getelementptr inbounds nuw i8, ptr %12, i64 16
  %31 = load ptr, ptr %30, align 8
  call void @bit_or(ptr noundef %.070, ptr noundef %31) #14
  br label %37

32:                                               ; preds = %26
  %33 = getelementptr inbounds nuw i8, ptr %12, i64 16
  %34 = load ptr, ptr %33, align 8
  call void @bit_and(ptr noundef %.070, ptr noundef %34) #14
  br label %37

35:                                               ; preds = %20
  %36 = icmp eq i32 %.03367, 1
  br i1 %36, label %.thread54, label %37

.thread54:                                        ; preds = %.thread, %35
  %.1325059 = phi i32 [ %.03168, %35 ], [ %.03367, %.thread ]
  %.15358 = phi ptr [ %.070, %35 ], [ %23, %.thread ]
  call void @bit_clear_all(ptr noundef %.15358) #14
  br label %37

37:                                               ; preds = %35, %.thread54, %.thread60, %32, %29
  %.152 = phi ptr [ %.070, %35 ], [ %.15358, %.thread54 ], [ %.15164, %.thread60 ], [ %.070, %32 ], [ %.070, %29 ]
  %.13248 = phi i32 [ %.03168, %35 ], [ %.1325059, %.thread54 ], [ %.1324965, %.thread60 ], [ %.03168, %32 ], [ %.03168, %29 ]
  %38 = load i16, ptr %13, align 8
  %39 = zext i16 %38 to i32
  %40 = icmp samesign ugt i32 %.02969, %39
  br i1 %40, label %41, label %48

41:                                               ; preds = %37
  %42 = load ptr, ptr %3, align 8
  switch i32 %.13248, label %45 [
    i32 1, label %43
    i32 0, label %44
  ]

43:                                               ; preds = %41
  call void @bit_and(ptr noundef %42, ptr noundef %.152) #14
  br label %46

44:                                               ; preds = %41
  call void @bit_or(ptr noundef %42, ptr noundef %.152) #14
  br label %46

45:                                               ; preds = %41
  call void @bit_and(ptr noundef %42, ptr noundef %.152) #14
  br label %46

46:                                               ; preds = %44, %45, %43
  %47 = load ptr, ptr %3, align 8
  %.pre = load i16, ptr %13, align 8
  %.pre71 = zext i16 %.pre to i32
  br label %48

48:                                               ; preds = %46, %37
  %.pre-phi = phi i32 [ %.pre71, %46 ], [ %39, %37 ]
  %.2 = phi ptr [ %47, %46 ], [ %.152, %37 ]
  %49 = getelementptr inbounds nuw i8, ptr %12, i64 14
  %50 = load i8, ptr %49, align 2
  %51 = zext i8 %50 to i32
  %52 = call ptr @list_next(ptr noundef %10) #14
  %.not37 = icmp eq ptr %52, null
  br i1 %.not37, label %._crit_edge, label %.lr.ph, !llvm.loop !19

._crit_edge:                                      ; preds = %48, %8
  call void @list_iterator_destroy(ptr noundef %10) #14
  %53 = load ptr, ptr %4, align 8
  %.not38 = icmp eq ptr %53, null
  br i1 %.not38, label %55, label %54

54:                                               ; preds = %._crit_edge
  call void @slurm_bit_free(ptr noundef nonnull %4) #14
  br label %55

55:                                               ; preds = %54, %._crit_edge
  store ptr null, ptr %4, align 8
  %56 = load ptr, ptr %3, align 8
  %57 = call i64 @bit_ffc(ptr noundef %56) #14
  %58 = and i64 %57, 4294967295
  %59 = icmp eq i64 %58, 4294967295
  br i1 %59, label %60, label %62

60:                                               ; preds = %55
  %.not39 = icmp eq ptr %56, null
  br i1 %.not39, label %63, label %61

61:                                               ; preds = %60
  call void @slurm_bit_free(ptr noundef nonnull %3) #14
  br label %63

62:                                               ; preds = %55
  call void @bit_not(ptr noundef %56) #14
  store ptr %56, ptr %1, align 8
  br label %63

63:                                               ; preds = %60, %61, %2, %5, %62
  %.030 = phi i32 [ 1, %62 ], [ 0, %5 ], [ 0, %2 ], [ 0, %61 ], [ 0, %60 ]
  call void @llvm.lifetime.end.p0(i64 8, ptr nonnull %4) #14
  call void @llvm.lifetime.end.p0(i64 8, ptr nonnull %3) #14
  ret i32 %.030
}